Certificate:
    Data:
        Version: 3 (0x2)
        Serial Number: 1193047 (0x123457)
        Signature Algorithm: sha1WithRSAEncryption
        Issuer: C=US, ST=CA, L=LA, O=Company, OU=IT, CN=localhost/emailAddress=foo@example.com
        Validity
            Not Before: Jun 25 18:59:29 2017 GMT
            Not After : Jun 25 18:59:29 2018 GMT
        Subject: C=US, ST=CA, O=Company, OU=IT, CN=localhost/emailAddress=foo@example.com
        Subject Public Key Info:
            Public Key Algorithm: rsaEncryption
            RSA Public Key: (1024 bit)
                Modulus (1024 bit):
                    00:c7:df:6f:aa:8d:54:da:68:14:b4:b7:55:02:2c:
                    95:03:df:9a:c8:40:b8:76:63:04:bd:3e:52:26:93:
                    44:0d:50:47:74:b2:fe:43:78:89:59:32:d6:7e:01:
                    dd:82:73:41:86:29:26:36:a6:cc:32:0f:92:60:93:
                    03:c2:83:e3:98:17:14:aa:a6:20:60:c7:54:69:23:
                    59:66:a7:38:3b:ea:e5:0c:51:2b:8b:b0:7f:fc:a0:
                    aa:d0:e5:1a:61:f4:04:7e:ef:21:8e:25:c7:34:ed:
                    ab:1a:3b:7b:94:57:d3:2d:2b:56:c8:4a:14:03:1c:
                    66:ce:4c:04:a2:86:aa:39:2d
                Exponent: 65537 (0x10001)
        X509v3 extensions:
            X509v3 Basic Constraints: 
                CA:FALSE
            Netscape Comment: 
                OpenSSL Generated Certificate
            X509v3 Subject Key Identifier: 
                01:AF:F8:25:EE:8C:D9:36:EE:32:B9:C6:08:69:D3:C9:B3:71:A2:C4
            X509v3 Authority Key Identifier: 
                DirName:/C=US/ST=CA/L=LA/O=Company/OU=IT/CN=localhost/emailAddress=foo@example.com
                serial:A4:01:35:33:4E:2E:7F:F5

    Signature Algorithm: sha1WithRSAEncryption
        46:0d:a4:39:bb:4c:13:ce:bf:6a:a6:e0:5f:e4:6b:5c:1f:b2:
        1d:19:ab:ba:bd:5e:15:ff:38:3d:55:d1:07:12:15:ae:92:30:
        3c:84:5a:1a:11:39:04:39:cf:61:60:d1:a9:d1:2c:12:57:44:
        a5:89:e0:71:ab:7c:6c:96:5d:10:57:af:8d:ca:2a:a4:2e:37:
        16:c5:69:eb:65:52:04:80:e7:0a:cd:cd:5e:f7:c4:be:29:3d:
        c3:63:64:95:6f:1f:7e:59:9a:22:a2:6d:9e:c3:02:88:63:96:
        2f:94:11:c6:96:62:f3:46:57:12:1d:1d:c4:f3:ca:90:00:96:
        9c:87
-----BEGIN CERTIFICATE-----
MIIDVDCCAr2gAwIBAgIDEjRXMA0GCSqGSIb3DQEBBQUAMHoxCzAJBgNVBAYTAlVT
MQswCQYDVQQIEwJDQTELMAkGA1UEBxMCTEExEDAOBgNVBAoTB0NvbXBhbnkxCzAJ
BgNVBAsTAklUMRIwEAYDVQQDEwlsb2NhbGhvc3QxHjAcBgkqhkiG9w0BCQEWD2Zv
b0BleGFtcGxlLmNvbTAeFw0xNzA2MjUxODU5MjlaFw0xODA2MjUxODU5MjlaMG0x
CzAJBgNVBAYTAlVTMQswCQYDVQQIEwJDQTEQMA4GA1UEChMHQ29tcGFueTELMAkG
A1UECxMCSVQxEjAQBgNVBAMTCWxvY2FsaG9zdDEeMBwGCSqGSIb3DQEJARYPZm9v
QGV4YW1wbGUuY29tMIGfMA0GCSqGSIb3DQEBAQUAA4GNADCBiQKBgQDH32+qjVTa
aBS0t1UCLJUD35rIQLh2YwS9PlImk0QNUEd0sv5DeIlZMtZ+Ad2Cc0GGKSY2pswy
D5JgkwPCg+OYFxSqpiBgx1RpI1lmpzg76uUMUSuLsH/8oKrQ5Rph9AR+7yGOJcc0
7asaO3uUV9MtK1bIShQDHGbOTASihqo5LQIDAQABo4H0MIHxMAkGA1UdEwQCMAAw
LAYJYIZIAYb4QgENBB8WHU9wZW5TU0wgR2VuZXJhdGVkIENlcnRpZmljYXRlMB0G
A1UdDgQWBBQBr/gl7ozZNu4yucYIadPJs3GixDCBlgYDVR0jBIGOMIGLoX6kfDB6
MQswCQYDVQQGEwJVUzELMAkGA1UECBMCQ0ExCzAJBgNVBAcTAkxBMRAwDgYDVQQK
EwdDb21wYW55MQswCQYDVQQLEwJJVDESMBAGA1UEAxMJbG9jYWxob3N0MR4wHAYJ
KoZIhvcNAQkBFg9mb29AZXhhbXBsZS5jb22CCQCkATUzTi5/9TANBgkqhkiG9w0B
AQUFAAOBgQBGDaQ5u0wTzr9qpuBf5GtcH7IdGau6vV4V/zg9VdEHEhWukjA8hFoa
ETkEOc9hYNGp0SwSV0SlieBxq3xsll0QV6+NyiqkLjcWxWnrZVIEgOcKzc1e98S+
KT3DY2SVbx9+WZoiom2ewwKIY5YvlBHGlmLzRlcSHR3E88qQAJachw==
-----END CERTIFICATE-----
